target datalayout = "e-m:e-p270:32:32-p271:32:32-p272:64:64-i64:64-i128:128-f80:128-n8:16:32:64-S128"
target triple = "x86_64-pc-linux-gnu"

@H5D_init_g = external global i8, align 1
@H5_libterm_g = external global i8, align 1

; Function Attrs: nounwind uwtable
define zeroext i1 @H5D__chunk_is_partial_edge_chunk(i32 noundef %0, ptr noundef %1, ptr noundef %2, ptr noundef %3) #0 {
  %5 = alloca i32, align 4
  %6 = alloca ptr, align 8
  %7 = alloca ptr, align 8
  %8 = alloca ptr, align 8
  %9 = alloca i32, align 4
  %10 = alloca i8, align 1
  store i32 %0, ptr %5, align 4, !tbaa !10
  store ptr %1, ptr %6, align 8, !tbaa !233
  store ptr %2, ptr %7, align 8, !tbaa !152
  store ptr %3, ptr %8, align 8, !tbaa !152
  call void @llvm.lifetime.start.p0(i64 4, ptr %9) #10
  call void @llvm.lifetime.start.p0(i64 1, ptr %10) #10
  store i8 0, ptr %10, align 1, !tbaa !12
  %11 = load i8, ptr @H5D_init_g, align 1, !tbaa !12, !range !14, !noundef !15
  %12 = trunc i8 %11 to i1
  br i1 %12, label %17, label %13

13:                                               ; preds = %4
  %14 = load i8, ptr @H5_libterm_g, align 1, !tbaa !12, !range !14, !noundef !15
  %15 = trunc i8 %14 to i1
  %16 = xor i1 %15, true
  br label %17

17:                                               ; preds = %13, %4
  %18 = phi i1 [ true, %4 ], [ %16, %13 ]
  %19 = xor i1 %18, true
  %20 = xor i1 %19, true
  %21 = zext i1 %20 to i32
  %22 = sext i32 %21 to i64
  %23 = call i64 @llvm.expect.i64(i64 %22, i64 1)
  %24 = icmp ne i64 %23, 0
  br i1 %24, label %25, label %60

25:                                               ; preds = %17
  store i32 0, ptr %9, align 4, !tbaa !10
  br label %26

26:                                               ; preds = %55, %25
  %27 = load i32, ptr %9, align 4, !tbaa !10
  %28 = load i32, ptr %5, align 4, !tbaa !10
  %29 = icmp ult i32 %27, %28
  br i1 %29, label %30, label %58

30:                                               ; preds = %26
  %31 = load ptr, ptr %7, align 8, !tbaa !152
  %32 = load i32, ptr %9, align 4, !tbaa !10
  %33 = zext i32 %32 to i64
  %34 = getelementptr inbounds nuw i64, ptr %31, i64 %33
  %35 = load i64, ptr %34, align 8, !tbaa !24
  %36 = add i64 %35, 1
  %37 = load ptr, ptr %6, align 8, !tbaa !233
  %38 = load i32, ptr %9, align 4, !tbaa !10
  %39 = zext i32 %38 to i64
  %40 = getelementptr inbounds nuw i32, ptr %37, i64 %39
  %41 = load i32, ptr %40, align 4, !tbaa !10
  %42 = zext i32 %41 to i64
  %43 = mul i64 %36, %42
  %44 = load ptr, ptr %8, align 8, !tbaa !152
  %45 = load i32, ptr %9, align 4, !tbaa !10
  %46 = zext i32 %45 to i64
  %47 = getelementptr inbounds nuw i64, ptr %44, i64 %46
  %48 = load i64, ptr %47, align 8, !tbaa !24
  %49 = icmp ugt i64 %43, %48
  br i1 %49, label %50, label %54

50:                                               ; preds = %30
  br label %51

51:                                               ; preds = %50
  store i8 1, ptr %10, align 1, !tbaa !12
  br label %59

52:                                               ; No predecessors!
  br label %53

53:                                               ; preds = %52
  br label %54

54:                                               ; preds = %53, %30
  br label %55

55:                                               ; preds = %54
  %56 = load i32, ptr %9, align 4, !tbaa !10
  %57 = add i32 %56, 1
  store i32 %57, ptr %9, align 4, !tbaa !10
  br label %26, !llvm.loop !251

58:                                               ; preds = %26
  br label %59

59:                                               ; preds = %58, %51
  br label %60

60:                                               ; preds = %59, %17
  %61 = load i8, ptr %10, align 1, !tbaa !12, !range !14, !noundef !15
  %62 = trunc i8 %61 to i1
  call void @llvm.lifetime.end.p0(i64 1, ptr %10) #10
  call void @llvm.lifetime.end.p0(i64 4, ptr %9) #10
  ret i1 %62
}