; Function Attrs: nofree norecurse nosync nounwind memory(read, inaccessiblemem: none) uwtable
define noundef zeroext i1 @H5D__chunk_is_partial_edge_chunk(i32 noundef %0, ptr noundef readonly captures(none) %1, ptr noundef readonly captures(none) %2, ptr noundef readonly captures(none) %3) local_unnamed_addr #5 {
  %5 = load i8, ptr @H5D_init_g, align 1, !tbaa !3, !range !7, !noundef !8
  %6 = trunc nuw i8 %5 to i1
  %7 = load i8, ptr @H5_libterm_g, align 1, !range !7
  %8 = trunc nuw i8 %7 to i1
  %9 = xor i1 %8, true
  %10 = select i1 %6, i1 true, i1 %9
  %11 = icmp ne i32 %0, 0
  %or.cond = and i1 %10, %11
  br i1 %or.cond, label %.lr.ph.preheader, label %.loopexit, !prof !248

.lr.ph.preheader:                                 ; preds = %4
  %wide.trip.count = zext i32 %0 to i64
  br label %.lr.ph

.lr.ph:                                           ; preds = %.lr.ph, %.lr.ph.preheader
  %indvars.iv = phi i64 [ 0, %.lr.ph.preheader ], [ %indvars.iv.next, %.lr.ph ]
  %12 = getelementptr inbounds nuw i64, ptr %2, i64 %indvars.iv
  %13 = load i64, ptr %12, align 8, !tbaa !21
  %14 = add i64 %13, 1
  %15 = getelementptr inbounds nuw i32, ptr %1, i64 %indvars.iv
  %16 = load i32, ptr %15, align 4, !tbaa !62
  %17 = zext i32 %16 to i64
  %18 = mul i64 %14, %17
  %19 = getelementptr inbounds nuw i64, ptr %3, i64 %indvars.iv
  %20 = load i64, ptr %19, align 8, !tbaa !21
  %21 = icmp ugt i64 %18, %20
  %indvars.iv.next = add nuw nsw i64 %indvars.iv, 1
  %exitcond.not = icmp eq i64 %indvars.iv.next, %wide.trip.count
  %or.cond14 = select i1 %21, i1 true, i1 %exitcond.not
  br i1 %or.cond14, label %.loopexit, label %.lr.ph, !llvm.loop !189

.loopexit:                                        ; preds = %.lr.ph, %4
  %.0 = phi i1 [ false, %4 ], [ %21, %.lr.ph ]
  ret i1 %.0
}